target datalayout = "e-m:e-p270:32:32-p271:32:32-p272:64:64-i64:64-i128:128-f80:128-n8:16:32:64-S128"
target triple = "x86_64-pc-linux-gnu"

%struct.H5O_layout_t = type { i32, i32, ptr, %union.anon.0, %struct.H5O_storage_t }
%union.anon.0 = type { %struct.H5O_layout_chunk_t }
%struct.H5O_layout_chunk_t = type { i32, i8, i32, [33 x i32], i32, i32, i64, i64, [33 x i64], [33 x i64], [33 x i64], [33 x i64], %union.anon.1 }
%union.anon.1 = type { %struct.H5O_layout_chunk_earray_t }
%struct.H5O_layout_chunk_earray_t = type { %struct.anon.2, i32, [33 x i32], [33 x i64], [33 x i64] }
%struct.anon.2 = type { i8, i8, i8, i8, i8 }
%struct.H5O_storage_t = type { i32, %union.anon.4 }
%union.anon.4 = type { %struct.H5O_storage_virtual_t }
%struct.H5O_storage_virtual_t = type { %struct.H5HG_t, i64, ptr, i64, [32 x i64], i32, i64, i64, i64, i8 }
%struct.H5HG_t = type { i64, i64 }
%struct.H5O_storage_compact_t = type { i8, i64, ptr }

@H5D_init_g = external global i8, align 1
@H5_libterm_g = external global i8, align 1
@.str = private unnamed_addr constant [103 x i8] c"generated/home/dtcxzyw/WorkSpace/Projects/compilers/llvm-opt-benchmark/bench/hdf5/hdf5/src/H5Dlayout.c\00", align 1
@__func__.H5D__layout_meta_size = private unnamed_addr constant [22 x i8] c"H5D__layout_meta_size\00", align 1
@H5E_OHDR_g = external global i64, align 8
@H5E_BADVALUE_g = external global i64, align 8
@.str.3 = private unnamed_addr constant [50 x i8] c"v1 B-tree index type found for layout message >v3\00", align 1
@H5E_CANTENCODE_g = external global i64, align 8
@.str.4 = private unnamed_addr constant [25 x i8] c"Invalid chunk index type\00", align 1
@.str.5 = private unnamed_addr constant [21 x i8] c"Invalid layout class\00", align 1

; Function Attrs: nounwind uwtable
define i64 @H5D__layout_meta_size(ptr noundef %0, ptr noundef %1, i1 noundef zeroext %2) #0 {
  %4 = alloca ptr, align 8
  %5 = alloca ptr, align 8
  %6 = alloca i8, align 1
  %7 = alloca i64, align 8
  %8 = alloca i8, align 1
  store ptr %0, ptr %4, align 8, !tbaa !52
  store ptr %1, ptr %5, align 8, !tbaa !53
  %9 = zext i1 %2 to i8
  store i8 %9, ptr %6, align 1, !tbaa !10
  call void @llvm.lifetime.start.p0(i64 8, ptr %7) #5
  store i64 0, ptr %7, align 8, !tbaa !51
  call void @llvm.lifetime.start.p0(i64 1, ptr %8) #5
  store i8 0, ptr %8, align 1, !tbaa !10
  %10 = load i8, ptr @H5D_init_g, align 1, !tbaa !10, !range !12, !noundef !13
  %11 = trunc i8 %10 to i1
  br i1 %11, label %16, label %12

12:                                               ; preds = %3
  %13 = load i8, ptr @H5_libterm_g, align 1, !tbaa !10, !range !12, !noundef !13
  %14 = trunc i8 %13 to i1
  %15 = xor i1 %14, true
  br label %16

16:                                               ; preds = %12, %3
  %17 = phi i1 [ true, %3 ], [ %15, %12 ]
  %18 = xor i1 %17, true
  %19 = xor i1 %18, true
  %20 = zext i1 %19 to i32
  %21 = sext i32 %20 to i64
  %22 = call i64 @llvm.expect.i64(i64 %21, i64 1)
  %23 = icmp ne i64 %22, 0
  br i1 %23, label %24, label %202

24:                                               ; preds = %16
  store i64 2, ptr %7, align 8, !tbaa !51
  %25 = load ptr, ptr %5, align 8, !tbaa !53
  %26 = getelementptr inbounds nuw %struct.H5O_layout_t, ptr %25, i32 0, i32 0
  %27 = load i32, ptr %26, align 8, !tbaa !55
  switch i32 %27, label %181 [
    i32 0, label %28
    i32 1, label %42
    i32 2, label %53
    i32 3, label %172
    i32 -1, label %180
    i32 4, label %180
  ]

28:                                               ; preds = %24
  %29 = load i64, ptr %7, align 8, !tbaa !51
  %30 = add i64 %29, 2
  store i64 %30, ptr %7, align 8, !tbaa !51
  %31 = load i8, ptr %6, align 1, !tbaa !10, !range !12, !noundef !13
  %32 = trunc i8 %31 to i1
  br i1 %32, label %33, label %41

33:                                               ; preds = %28
  %34 = load ptr, ptr %5, align 8, !tbaa !53
  %35 = getelementptr inbounds nuw %struct.H5O_layout_t, ptr %34, i32 0, i32 4
  %36 = getelementptr inbounds nuw %struct.H5O_storage_t, ptr %35, i32 0, i32 1
  %37 = getelementptr inbounds nuw %struct.H5O_storage_compact_t, ptr %36, i32 0, i32 1
  %38 = load i64, ptr %37, align 8, !tbaa !50
  %39 = load i64, ptr %7, align 8, !tbaa !51
  %40 = add i64 %39, %38
  store i64 %40, ptr %7, align 8, !tbaa !51
  br label %41

41:                                               ; preds = %33, %28
  br label %200

42:                                               ; preds = %24
  %43 = load ptr, ptr %4, align 8, !tbaa !52
  %44 = call zeroext i8 @H5F_sizeof_addr(ptr noundef %43)
  %45 = zext i8 %44 to i64
  %46 = load i64, ptr %7, align 8, !tbaa !51
  %47 = add i64 %46, %45
  store i64 %47, ptr %7, align 8, !tbaa !51
  %48 = load ptr, ptr %4, align 8, !tbaa !52
  %49 = call zeroext i8 @H5F_sizeof_size(ptr noundef %48)
  %50 = zext i8 %49 to i64
  %51 = load i64, ptr %7, align 8, !tbaa !51
  %52 = add i64 %51, %50
  store i64 %52, ptr %7, align 8, !tbaa !51
  br label %200

53:                                               ; preds = %24
  %54 = load ptr, ptr %5, align 8, !tbaa !53
  %55 = getelementptr inbounds nuw %struct.H5O_layout_t, ptr %54, i32 0, i32 1
  %56 = load i32, ptr %55, align 4, !tbaa !56
  %57 = icmp ult i32 %56, 4
  br i1 %57, label %58, label %74

58:                                               ; preds = %53
  %59 = load i64, ptr %7, align 8, !tbaa !51
  %60 = add i64 %59, 1
  store i64 %60, ptr %7, align 8, !tbaa !51
  %61 = load ptr, ptr %4, align 8, !tbaa !52
  %62 = call zeroext i8 @H5F_sizeof_addr(ptr noundef %61)
  %63 = zext i8 %62 to i64
  %64 = load i64, ptr %7, align 8, !tbaa !51
  %65 = add i64 %64, %63
  store i64 %65, ptr %7, align 8, !tbaa !51
  %66 = load ptr, ptr %5, align 8, !tbaa !53
  %67 = getelementptr inbounds nuw %struct.H5O_layout_t, ptr %66, i32 0, i32 3
  %68 = getelementptr inbounds nuw %struct.H5O_layout_chunk_t, ptr %67, i32 0, i32 2
  %69 = load i32, ptr %68, align 8, !tbaa !50
  %70 = mul i32 %69, 4
  %71 = zext i32 %70 to i64
  %72 = load i64, ptr %7, align 8, !tbaa !51
  %73 = add i64 %72, %71
  store i64 %73, ptr %7, align 8, !tbaa !51
  br label %171

74:                                               ; preds = %53
  %75 = load i64, ptr %7, align 8, !tbaa !51
  %76 = add i64 %75, 1
  store i64 %76, ptr %7, align 8, !tbaa !51
  %77 = load i64, ptr %7, align 8, !tbaa !51
  %78 = add i64 %77, 1
  store i64 %78, ptr %7, align 8, !tbaa !51
  %79 = load i64, ptr %7, align 8, !tbaa !51
  %80 = add i64 %79, 1
  store i64 %80, ptr %7, align 8, !tbaa !51
  %81 = load ptr, ptr %5, align 8, !tbaa !53
  %82 = getelementptr inbounds nuw %struct.H5O_layout_t, ptr %81, i32 0, i32 3
  %83 = getelementptr inbounds nuw %struct.H5O_layout_chunk_t, ptr %82, i32 0, i32 2
  %84 = load i32, ptr %83, align 8, !tbaa !50
  %85 = zext i32 %84 to i64
  %86 = load ptr, ptr %5, align 8, !tbaa !53
  %87 = getelementptr inbounds nuw %struct.H5O_layout_t, ptr %86, i32 0, i32 3
  %88 = getelementptr inbounds nuw %struct.H5O_layout_chunk_t, ptr %87, i32 0, i32 4
  %89 = load i32, ptr %88, align 8, !tbaa !50
  %90 = zext i32 %89 to i64
  %91 = mul i64 %85, %90
  %92 = load i64, ptr %7, align 8, !tbaa !51
  %93 = add i64 %92, %91
  store i64 %93, ptr %7, align 8, !tbaa !51
  %94 = load i64, ptr %7, align 8, !tbaa !51
  %95 = add i64 %94, 1
  store i64 %95, ptr %7, align 8, !tbaa !51
  %96 = load ptr, ptr %5, align 8, !tbaa !53
  %97 = getelementptr inbounds nuw %struct.H5O_layout_t, ptr %96, i32 0, i32 3
  %98 = getelementptr inbounds nuw %struct.H5O_layout_chunk_t, ptr %97, i32 0, i32 0
  %99 = load i32, ptr %98, align 8, !tbaa !50
  switch i32 %99, label %146 [
    i32 0, label %100
    i32 2, label %165
    i32 1, label %119
    i32 3, label %136
    i32 4, label %139
    i32 5, label %142
    i32 6, label %145
  ]

100:                                              ; preds = %74
  br label %101

101:                                              ; preds = %100
  br label %102

102:                                              ; preds = %101
  br label %103

103:                                              ; preds = %102
  %104 = load i64, ptr @H5E_OHDR_g, align 8, !tbaa !51
  %105 = load i64, ptr @H5E_BADVALUE_g, align 8, !tbaa !51
  %106 = call i32 (ptr, ptr, i32, i64, i64, ptr, ...) @H5E_printf_stack(ptr noundef @.str, ptr noundef @__func__.H5D__layout_meta_size, i32 noundef 220, i64 noundef %104, i64 noundef %105, ptr noundef @.str.3)
  br label %107

107:                                              ; preds = %103
  br label %108

108:                                              ; preds = %107
  store i8 1, ptr %8, align 1, !tbaa !10
  %109 = load i8, ptr %8, align 1, !tbaa !10, !range !12, !noundef !13
  %110 = trunc i8 %109 to i1
  %111 = zext i1 %110 to i8
  store i8 %111, ptr %8, align 1, !tbaa !10
  br label %112

112:                                              ; preds = %108
  br label %113

113:                                              ; preds = %112
  br label %114

114:                                              ; preds = %113
  store i64 0, ptr %7, align 8, !tbaa !51
  br label %201

115:                                              ; No predecessors!
  br label %116

116:                                              ; preds = %115
  br label %117

117:                                              ; preds = %116
  br label %118

118:                                              ; preds = %117
  br label %165

119:                                              ; preds = %74
  %120 = load ptr, ptr %5, align 8, !tbaa !53
  %121 = getelementptr inbounds nuw %struct.H5O_layout_t, ptr %120, i32 0, i32 3
  %122 = getelementptr inbounds nuw %struct.H5O_layout_chunk_t, ptr %121, i32 0, i32 1
  %123 = load i8, ptr %122, align 4, !tbaa !50
  %124 = zext i8 %123 to i32
  %125 = and i32 %124, 2
  %126 = icmp ne i32 %125, 0
  br i1 %126, label %127, label %135

127:                                              ; preds = %119
  %128 = load ptr, ptr %4, align 8, !tbaa !52
  %129 = call zeroext i8 @H5F_sizeof_size(ptr noundef %128)
  %130 = zext i8 %129 to i64
  %131 = load i64, ptr %7, align 8, !tbaa !51
  %132 = add i64 %131, %130
  store i64 %132, ptr %7, align 8, !tbaa !51
  %133 = load i64, ptr %7, align 8, !tbaa !51
  %134 = add i64 %133, 4
  store i64 %134, ptr %7, align 8, !tbaa !51
  br label %135

135:                                              ; preds = %127, %119
  br label %165

136:                                              ; preds = %74
  %137 = load i64, ptr %7, align 8, !tbaa !51
  %138 = add i64 %137, 1
  store i64 %138, ptr %7, align 8, !tbaa !51
  br label %165

139:                                              ; preds = %74
  %140 = load i64, ptr %7, align 8, !tbaa !51
  %141 = add i64 %140, 5
  store i64 %141, ptr %7, align 8, !tbaa !51
  br label %165

142:                                              ; preds = %74
  %143 = load i64, ptr %7, align 8, !tbaa !51
  %144 = add i64 %143, 6
  store i64 %144, ptr %7, align 8, !tbaa !51
  br label %165

145:                                              ; preds = %74
  br label %146

146:                                              ; preds = %74, %145
  br label %147

147:                                              ; preds = %146
  br label %148

148:                                              ; preds = %147
  br label %149

149:                                              ; preds = %148
  %150 = load i64, ptr @H5E_OHDR_g, align 8, !tbaa !51
  %151 = load i64, ptr @H5E_CANTENCODE_g, align 8, !tbaa !51
  %152 = call i32 (ptr, ptr, i32, i64, i64, ptr, ...) @H5E_printf_stack(ptr noundef @.str, ptr noundef @__func__.H5D__layout_meta_size, i32 noundef 251, i64 noundef %150, i64 noundef %151, ptr noundef @.str.4)
  br label %153

153:                                              ; preds = %149
  br label %154

154:                                              ; preds = %153
  store i8 1, ptr %8, align 1, !tbaa !10
  %155 = load i8, ptr %8, align 1, !tbaa !10, !range !12, !noundef !13
  %156 = trunc i8 %155 to i1
  %157 = zext i1 %156 to i8
  store i8 %157, ptr %8, align 1, !tbaa !10
  br label %158

158:                                              ; preds = %154
  br label %159

159:                                              ; preds = %158
  br label %160

160:                                              ; preds = %159
  store i64 0, ptr %7, align 8, !tbaa !51
  br label %201

161:                                              ; No predecessors!
  br label %162

162:                                              ; preds = %161
  br label %163

163:                                              ; preds = %162
  br label %164

164:                                              ; preds = %163
  br label %165

165:                                              ; preds = %164, %142, %139, %136, %135, %118, %74
  %166 = load ptr, ptr %4, align 8, !tbaa !52
  %167 = call zeroext i8 @H5F_sizeof_addr(ptr noundef %166)
  %168 = zext i8 %167 to i64
  %169 = load i64, ptr %7, align 8, !tbaa !51
  %170 = add i64 %169, %168
  store i64 %170, ptr %7, align 8, !tbaa !51
  br label %171

171:                                              ; preds = %165, %58
  br label %200

172:                                              ; preds = %24
  %173 = load ptr, ptr %4, align 8, !tbaa !52
  %174 = call zeroext i8 @H5F_sizeof_addr(ptr noundef %173)
  %175 = zext i8 %174 to i64
  %176 = load i64, ptr %7, align 8, !tbaa !51
  %177 = add i64 %176, %175
  store i64 %177, ptr %7, align 8, !tbaa !51
  %178 = load i64, ptr %7, align 8, !tbaa !51
  %179 = add i64 %178, 4
  store i64 %179, ptr %7, align 8, !tbaa !51
  br label %200

180:                                              ; preds = %24, %24
  br label %181

181:                                              ; preds = %24, %180
  br label %182

182:                                              ; preds = %181
  br label %183

183:                                              ; preds = %182
  br label %184

184:                                              ; preds = %183
  %185 = load i64, ptr @H5E_OHDR_g, align 8, !tbaa !51
  %186 = load i64, ptr @H5E_CANTENCODE_g, align 8, !tbaa !51
  %187 = call i32 (ptr, ptr, i32, i64, i64, ptr, ...) @H5E_printf_stack(ptr noundef @.str, ptr noundef @__func__.H5D__layout_meta_size, i32 noundef 267, i64 noundef %185, i64 noundef %186, ptr noundef @.str.5)
  br label %188

188:                                              ; preds = %184
  br label %189

189:                                              ; preds = %188
  store i8 1, ptr %8, align 1, !tbaa !10
  %190 = load i8, ptr %8, align 1, !tbaa !10, !range !12, !noundef !13
  %191 = trunc i8 %190 to i1
  %192 = zext i1 %191 to i8
  store i8 %192, ptr %8, align 1, !tbaa !10
  br label %193

193:                                              ; preds = %189
  br label %194

194:                                              ; preds = %193
  br label %195

195:                                              ; preds = %194
  store i64 0, ptr %7, align 8, !tbaa !51
  br label %201

196:                                              ; No predecessors!
  br label %197

197:                                              ; preds = %196
  br label %198

198:                                              ; preds = %197
  br label %199

199:                                              ; preds = %198
  br label %200

200:                                              ; preds = %199, %172, %171, %42, %41
  br label %201

201:                                              ; preds = %200, %195, %160, %114
  br label %202

202:                                              ; preds = %201, %16
  %203 = load i64, ptr %7, align 8, !tbaa !51
  call void @llvm.lifetime.end.p0(i64 1, ptr %8) #5
  call void @llvm.lifetime.end.p0(i64 8, ptr %7) #5
  ret i64 %203
}