; Function Attrs: nounwind uwtable
define i64 @H5D__layout_meta_size(ptr noundef %0, ptr noundef readonly captures(none) %1, i1 noundef zeroext %2) local_unnamed_addr #0 {
  %4 = load i8, ptr @H5D_init_g, align 1, !tbaa !3, !range !7, !noundef !8
  %5 = trunc nuw i8 %4 to i1
  %6 = load i8, ptr @H5_libterm_g, align 1, !range !7
  %7 = trunc nuw i8 %6 to i1
  %8 = xor i1 %7, true
  %9 = select i1 %5, i1 true, i1 %8
  br i1 %9, label %10, label %83, !prof !9

10:                                               ; preds = %3
  %11 = load i32, ptr %1, align 8, !tbaa !50
  switch i32 %11, label %79 [
    i32 0, label %12
    i32 1, label %17
    i32 2, label %24
    i32 3, label %75
  ]

12:                                               ; preds = %10
  br i1 %2, label %13, label %83

13:                                               ; preds = %12
  %14 = getelementptr inbounds nuw i8, ptr %1, i64 1928
  %15 = load i64, ptr %14, align 8, !tbaa !48
  %16 = add i64 %15, 4
  br label %83

17:                                               ; preds = %10
  %18 = tail call zeroext i8 @H5F_sizeof_addr(ptr noundef %0) #4
  %19 = zext i8 %18 to i64
  %20 = add nuw nsw i64 %19, 2
  %21 = tail call zeroext i8 @H5F_sizeof_size(ptr noundef %0) #4
  %22 = zext i8 %21 to i64
  %23 = add nuw nsw i64 %20, %22
  br label %83

24:                                               ; preds = %10
  %25 = getelementptr inbounds nuw i8, ptr %1, i64 4
  %26 = load i32, ptr %25, align 4, !tbaa !51
  %27 = icmp ult i32 %26, 4
  br i1 %27, label %28, label %37

28:                                               ; preds = %24
  %29 = tail call zeroext i8 @H5F_sizeof_addr(ptr noundef %0) #4
  %30 = zext i8 %29 to i64
  %31 = add nuw nsw i64 %30, 3
  %32 = getelementptr inbounds nuw i8, ptr %1, i64 24
  %33 = load i32, ptr %32, align 8, !tbaa !48
  %34 = shl i32 %33, 2
  %35 = zext i32 %34 to i64
  %36 = add nuw nsw i64 %31, %35
  br label %83

37:                                               ; preds = %24
  %38 = getelementptr inbounds nuw i8, ptr %1, i64 16
  %39 = getelementptr inbounds nuw i8, ptr %1, i64 24
  %40 = load i32, ptr %39, align 8, !tbaa !48
  %41 = zext i32 %40 to i64
  %42 = getelementptr inbounds nuw i8, ptr %1, i64 160
  %43 = load i32, ptr %42, align 8, !tbaa !48
  %44 = zext i32 %43 to i64
  %45 = mul nuw i64 %44, %41
  %46 = add nuw i64 %45, 6
  %47 = load i32, ptr %38, align 8, !tbaa !48
  switch i32 %47, label %67 [
    i32 0, label %48
    i32 2, label %71
    i32 1, label %52
    i32 3, label %61
    i32 4, label %63
    i32 5, label %65
  ]

48:                                               ; preds = %37
  %49 = load i64, ptr @H5E_OHDR_g, align 8, !tbaa !49
  %50 = load i64, ptr @H5E_BADVALUE_g, align 8, !tbaa !49
  %51 = tail call i32 (ptr, ptr, i32, i64, i64, ptr, ...) @H5E_printf_stack(ptr noundef nonnull @.str, ptr noundef nonnull @__func__.H5D__layout_meta_size, i32 noundef 220, i64 noundef %49, i64 noundef %50, ptr noundef nonnull @.str.3) #4
  br label %83

52:                                               ; preds = %37
  %53 = getelementptr inbounds nuw i8, ptr %1, i64 20
  %54 = load i8, ptr %53, align 4, !tbaa !48
  %55 = and i8 %54, 2
  %.not = icmp eq i8 %55, 0
  br i1 %.not, label %71, label %56

56:                                               ; preds = %52
  %57 = tail call zeroext i8 @H5F_sizeof_size(ptr noundef %0) #4
  %58 = zext i8 %57 to i64
  %59 = add nuw i64 %45, 10
  %60 = add nuw i64 %59, %58
  br label %71

61:                                               ; preds = %37
  %62 = add nuw i64 %45, 7
  br label %71

63:                                               ; preds = %37
  %64 = add nuw i64 %45, 11
  br label %71

65:                                               ; preds = %37
  %66 = add nuw i64 %45, 12
  br label %71

67:                                               ; preds = %37
  %68 = load i64, ptr @H5E_OHDR_g, align 8, !tbaa !49
  %69 = load i64, ptr @H5E_CANTENCODE_g, align 8, !tbaa !49
  %70 = tail call i32 (ptr, ptr, i32, i64, i64, ptr, ...) @H5E_printf_stack(ptr noundef nonnull @.str, ptr noundef nonnull @__func__.H5D__layout_meta_size, i32 noundef 251, i64 noundef %68, i64 noundef %69, ptr noundef nonnull @.str.4) #4
  br label %83

71:                                               ; preds = %52, %56, %65, %63, %61, %37
  %.1 = phi i64 [ %66, %65 ], [ %64, %63 ], [ %62, %61 ], [ %60, %56 ], [ %46, %52 ], [ %46, %37 ]
  %72 = tail call zeroext i8 @H5F_sizeof_addr(ptr noundef %0) #4
  %73 = zext i8 %72 to i64
  %74 = add nuw i64 %.1, %73
  br label %83

75:                                               ; preds = %10
  %76 = tail call zeroext i8 @H5F_sizeof_addr(ptr noundef %0) #4
  %77 = zext i8 %76 to i64
  %78 = add nuw nsw i64 %77, 6
  br label %83

79:                                               ; preds = %10
  %80 = load i64, ptr @H5E_OHDR_g, align 8, !tbaa !49
  %81 = load i64, ptr @H5E_CANTENCODE_g, align 8, !tbaa !49
  %82 = tail call i32 (ptr, ptr, i32, i64, i64, ptr, ...) @H5E_printf_stack(ptr noundef nonnull @.str, ptr noundef nonnull @__func__.H5D__layout_meta_size, i32 noundef 267, i64 noundef %80, i64 noundef %81, ptr noundef nonnull @.str.5) #4
  br label %83

83:                                               ; preds = %48, %67, %79, %28, %71, %12, %13, %75, %17, %3
  %.0 = phi i64 [ 0, %79 ], [ %78, %75 ], [ %36, %28 ], [ 0, %67 ], [ %74, %71 ], [ 0, %48 ], [ %23, %17 ], [ %16, %13 ], [ 4, %12 ], [ 0, %3 ]
  ret i64 %.0
}